; Function Attrs: null_pointer_is_valid sspstrong uwtable
define ptr @oid_resolved_from_encoded(ptr noundef %0, ptr noundef readonly captures(none) %1, i32 noundef %2) local_unnamed_addr #0 {
  %4 = icmp sgt i32 %2, 0
  br i1 %4, label %.lr.ph.preheader.i.i, label %._crit_edge.i.i.thread

._crit_edge.i.i.thread:                           ; preds = %3
  %5 = tail call noalias dereferenceable_or_null(4) ptr @wmem_alloc(ptr noundef null, i64 noundef 4) #8
  br label %14

.lr.ph.preheader.i.i:                             ; preds = %3
  %wide.trip.count.i.i = zext nneg i32 %2 to i64
  br label %.lr.ph.i.i

.lr.ph.i.i:                                       ; preds = %.lr.ph.i.i, %.lr.ph.preheader.i.i
  %indvars.iv.i.i = phi i64 [ 0, %.lr.ph.preheader.i.i ], [ %indvars.iv.next.i.i, %.lr.ph.i.i ]
  %.06484.i.i = phi i32 [ 1, %.lr.ph.preheader.i.i ], [ %spec.select.i.i, %.lr.ph.i.i ]
  %6 = getelementptr i8, ptr %1, i64 %indvars.iv.i.i
  %7 = load i8, ptr %6, align 1
  %.not7282.i.i = icmp sgt i8 %7, -1
  %8 = zext i1 %.not7282.i.i to i32
  %spec.select.i.i = add i32 %.06484.i.i, %8
  %indvars.iv.next.i.i = add nuw nsw i64 %indvars.iv.i.i, 1
  %exitcond.not.i.i = icmp eq i64 %indvars.iv.next.i.i, %wide.trip.count.i.i
  br i1 %exitcond.not.i.i, label %._crit_edge.i.i, label %.lr.ph.i.i, !llvm.loop !13

._crit_edge.i.i:                                  ; preds = %.lr.ph.i.i
  %9 = zext i32 %spec.select.i.i to i64
  %10 = shl nuw nsw i64 %9, 2
  %11 = tail call noalias ptr @wmem_alloc(ptr noundef null, i64 noundef %10) #8
  %12 = getelementptr i32, ptr %11, i64 %9
  %13 = icmp eq i32 %spec.select.i.i, 1
  br i1 %13, label %14, label %.lr.ph89.i.i

14:                                               ; preds = %._crit_edge.i.i.thread, %._crit_edge.i.i
  %15 = phi ptr [ %5, %._crit_edge.i.i.thread ], [ %11, %._crit_edge.i.i ]
  store i32 0, ptr %15, align 4
  br label %oid_encoded2subid.exit

.lr.ph89.i.i:                                     ; preds = %._crit_edge.i.i, %37
  %indvars.iv91.i.i = phi i64 [ %indvars.iv.next92.i.i, %37 ], [ 0, %._crit_edge.i.i ]
  %.05588.i.i = phi i64 [ %.156.ph.i.i, %37 ], [ 0, %._crit_edge.i.i ]
  %.05887.i.i = phi i1 [ %.159.ph.i.i, %37 ], [ true, %._crit_edge.i.i ]
  %.06186.i.i = phi ptr [ %.162.ph.i.i, %37 ], [ %11, %._crit_edge.i.i ]
  %16 = getelementptr i8, ptr %1, i64 %indvars.iv91.i.i
  %17 = load i8, ptr %16, align 1
  %18 = shl i64 %.05588.i.i, 7
  %19 = and i8 %17, 127
  %20 = zext nneg i8 %19 to i64
  %21 = or disjoint i64 %18, %20
  %.not.i.i = icmp sgt i8 %17, -1
  br i1 %.not.i.i, label %22, label %37

22:                                               ; preds = %.lr.ph89.i.i
  br i1 %.05887.i.i, label %23, label %30

23:                                               ; preds = %22
  %24 = icmp ugt i64 %21, 39
  %25 = add i64 %21, -40
  %spec.select73.i.i = select i1 %24, i64 %25, i64 %21
  %spec.select74.i.i = zext i1 %24 to i32
  %26 = icmp ugt i64 %spec.select73.i.i, 39
  %27 = select i1 %24, i32 2, i32 1
  %28 = add i64 %spec.select73.i.i, -40
  %.4.i.i = select i1 %26, i64 %28, i64 %spec.select73.i.i
  %.1.i.i = select i1 %26, i32 %27, i32 %spec.select74.i.i
  %29 = getelementptr i8, ptr %.06186.i.i, i64 4
  store i32 %.1.i.i, ptr %.06186.i.i, align 4
  br label %30

30:                                               ; preds = %23, %22
  %.263.i.i = phi ptr [ %29, %23 ], [ %.06186.i.i, %22 ]
  %.257.i.i = phi i64 [ %.4.i.i, %23 ], [ %21, %22 ]
  %31 = icmp uge ptr %.263.i.i, %12
  %32 = icmp ugt i64 %.257.i.i, 4294967295
  %or.cond5.i.i = select i1 %31, i1 true, i1 %32
  br i1 %or.cond5.i.i, label %36, label %33

33:                                               ; preds = %30
  %34 = trunc nuw i64 %.257.i.i to i32
  %35 = getelementptr i8, ptr %.263.i.i, i64 4
  store i32 %34, ptr %.263.i.i, align 4
  br label %37

36:                                               ; preds = %30
  tail call void @wmem_free(ptr noundef null, ptr noundef %11)
  br label %oid_encoded2subid.exit

37:                                               ; preds = %33, %.lr.ph89.i.i
  %.162.ph.i.i = phi ptr [ %.06186.i.i, %.lr.ph89.i.i ], [ %35, %33 ]
  %.159.ph.i.i = phi i1 [ %.05887.i.i, %.lr.ph89.i.i ], [ false, %33 ]
  %.156.ph.i.i = phi i64 [ %21, %.lr.ph89.i.i ], [ 0, %33 ]
  %indvars.iv.next92.i.i = add nuw nsw i64 %indvars.iv91.i.i, 1
  %exitcond94.not.i.i = icmp eq i64 %indvars.iv.next92.i.i, %wide.trip.count.i.i
  br i1 %exitcond94.not.i.i, label %oid_encoded2subid.exit, label %.lr.ph89.i.i, !llvm.loop !14

oid_encoded2subid.exit:                           ; preds = %37, %14, %36
  %.0 = phi ptr [ %15, %14 ], [ null, %36 ], [ %11, %37 ]
  %.052.i.i = phi i32 [ 1, %14 ], [ 0, %36 ], [ %spec.select.i.i, %37 ]
  %38 = tail call ptr @oid_resolved(ptr noundef %0, i32 noundef %.052.i.i, ptr noundef %.0)
  tail call void @wmem_free(ptr noundef null, ptr noundef %.0)
  ret ptr %38
}